	.file	"function_pointer.c"
	.text
.Ltext0:
	.file 0 "/home/venu/prep/programs_c/pointers" "function_pointer.c"
	.section	.rodata
.LC0:
	.string	"Hello all\n"
.LC1:
	.string	"Venu Gopal A"
	.text
	.globl	main
	.type	main, @function
main:
.LFB0:
	.file 1 "function_pointer.c"
	.loc 1 5 1
	.cfi_startproc
	endbr64
	pushq	%rbp
	.cfi_def_cfa_offset 16
	.cfi_offset 6, -16
	movq	%rsp, %rbp
	.cfi_def_cfa_register 6
	subq	$16, %rsp
	.loc 1 6 8
	movq	printf@GOTPCREL(%rip), %rax
	movq	%rax, -8(%rbp)
	.loc 1 9 3
	movq	-8(%rbp), %rdx
	leaq	.LC0(%rip), %rax
	movq	%rax, %rdi
	movl	$0, %eax
	call	*%rdx
.LVL0:
	.loc 1 11 2
	movq	printf@GOTPCREL(%rip), %rax
	movq	%rax, %rsi
	leaq	.LC1(%rip), %rax
	movq	%rax, %rdi
	call	call_back
	.loc 1 12 9
	movl	$0, %eax
	.loc 1 13 1
	leave
	.cfi_def_cfa 7, 8
	ret
	.cfi_endproc
.LFE0:
	.size	main, .-main
	.globl	call_back
	.type	call_back, @function
call_back:
.LFB1:
	.loc 1 19 62
	.cfi_startproc
	endbr64
	pushq	%rbp
	.cfi_def_cfa_offset 16
	.cfi_offset 6, -16
	movq	%rsp, %rbp
	.cfi_def_cfa_register 6
	subq	$16, %rsp
	movq	%rdi, -8(%rbp)
	movq	%rsi, -16(%rbp)
	.loc 1 21 2
	movq	-8(%rbp), %rax
	movq	-16(%rbp), %rdx
	movq	%rax, %rdi
	movl	$0, %eax
	call	*%rdx
.LVL1:
	.loc 1 22 2
	nop
	.loc 1 23 1
	leave
	.cfi_def_cfa 7, 8
	ret
	.cfi_endproc
.LFE1:
	.size	call_back, .-call_back
.Letext0:
	.file 2 "/usr/include/stdio.h"
	.section	.note.GNU-stack,"",@progbits
	.section	.note.gnu.property,"a"
	.align 8
	.long	1f - 0f
	.long	4f - 1f
	.long	5
0:
	.string	"GNU"
1:
	.align 8
	.long	0xc0000002
	.long	3f - 2f
2:
	.long	0x3
3:
	.align 8
4:
