	.text
	.file	"function_pointer.c"
	.globl	main                            # -- Begin function main
	.p2align	4, 0x90
	.type	main,@function
main:                                   # @main
	.cfi_startproc
# %bb.0:
	pushq	%rbp
	.cfi_def_cfa_offset 16
	.cfi_offset %rbp, -16
	movq	%rsp, %rbp
	.cfi_def_cfa_register %rbp
	subq	$16, %rsp
	movl	$0, -4(%rbp)
	movq	printf@GOTPCREL(%rip), %rax
	movq	%rax, -16(%rbp)
	leaq	.L.str(%rip), %rdi
	movb	$0, %al
	callq	*-16(%rbp)
	leaq	.L.str.1(%rip), %rdi
	movq	printf@GOTPCREL(%rip), %rsi
	callq	call_back
	xorl	%eax, %eax
	addq	$16, %rsp
	popq	%rbp
	.cfi_def_cfa %rsp, 8
	retq
.Lfunc_end0:
	.size	main, .Lfunc_end0-main
	.cfi_endproc
                                        # -- End function
	.globl	call_back                       # -- Begin function call_back
	.p2align	4, 0x90
	.type	call_back,@function
call_back:                              # @call_back
	.cfi_startproc
# %bb.0:
	pushq	%rbp
	.cfi_def_cfa_offset 16
	.cfi_offset %rbp, -16
	movq	%rsp, %rbp
	.cfi_def_cfa_register %rbp
	subq	$16, %rsp
	movq	%rdi, -8(%rbp)
	movq	%rsi, -16(%rbp)
	movq	-16(%rbp), %rcx
	movq	-8(%rbp), %rdi
	movb	$0, %al
	callq	*%rcx
	addq	$16, %rsp
	popq	%rbp
	.cfi_def_cfa %rsp, 8
	retq
.Lfunc_end1:
	.size	call_back, .Lfunc_end1-call_back
	.cfi_endproc
                                        # -- End function
	.type	.L.str,@object                  # @.str
	.section	.rodata.str1.1,"aMS",@progbits,1
.L.str:
	.asciz	"Hello all\n"
	.size	.L.str, 11

	.type	.L.str.1,@object                # @.str.1
.L.str.1:
	.asciz	"Venu Gopal A"
	.size	.L.str.1, 13

	.ident	"Ubuntu clang version 14.0.0-1ubuntu1.1"
	.section	".note.GNU-stack","",@progbits
	.addrsig
	.addrsig_sym printf
	.addrsig_sym call_back
